target datalayout = "e-m:e-p270:32:32-p271:32:32-p272:64:64-i64:64-i128:128-f80:128-n8:16:32:64-S128"
target triple = "x86_64-pc-linux-gnu"

%struct.PaUtilHostApiRepresentation = type { %struct.PaUtilPrivatePaFrontHostApiInfo, %struct.PaHostApiInfo, ptr, ptr, ptr, ptr }
%struct.PaUtilPrivatePaFrontHostApiInfo = type { i64 }
%struct.PaHostApiInfo = type { i32, i32, ptr, i32, i32, i32 }

@initializationCount_ = internal global i32 0, align 4
@hostApisCount_ = internal global i32 0, align 4
@hostApis_ = internal global ptr null, align 8

; Function Attrs: nounwind uwtable
define i32 @Pa_HostApiDeviceIndexToDeviceIndex(i32 noundef %0, i32 noundef %1) #0 {
  %3 = alloca i32, align 4
  %4 = alloca i32, align 4
  %5 = alloca i32, align 4
  store i32 %0, ptr %3, align 4
  store i32 %1, ptr %4, align 4
  %6 = load i32, ptr @initializationCount_, align 4
  %7 = icmp ne i32 %6, 0
  br i1 %7, label %9, label %8

8:                                                ; preds = %2
  store i32 -10000, ptr %5, align 4
  br label %47

9:                                                ; preds = %2
  %10 = load i32, ptr %3, align 4
  %11 = icmp slt i32 %10, 0
  br i1 %11, label %16, label %12

12:                                               ; preds = %9
  %13 = load i32, ptr %3, align 4
  %14 = load i32, ptr @hostApisCount_, align 4
  %15 = icmp sge i32 %13, %14
  br i1 %15, label %16, label %17

16:                                               ; preds = %12, %9
  store i32 -9978, ptr %5, align 4
  br label %46

17:                                               ; preds = %12
  %18 = load i32, ptr %4, align 4
  %19 = icmp slt i32 %18, 0
  br i1 %19, label %31, label %20

20:                                               ; preds = %17
  %21 = load i32, ptr %4, align 4
  %22 = load ptr, ptr @hostApis_, align 8
  %23 = load i32, ptr %3, align 4
  %24 = sext i32 %23 to i64
  %25 = getelementptr inbounds ptr, ptr %22, i64 %24
  %26 = load ptr, ptr %25, align 8
  %27 = getelementptr inbounds nuw %struct.PaUtilHostApiRepresentation, ptr %26, i32 0, i32 1
  %28 = getelementptr inbounds nuw %struct.PaHostApiInfo, ptr %27, i32 0, i32 3
  %29 = load i32, ptr %28, align 8
  %30 = icmp sge i32 %21, %29
  br i1 %30, label %31, label %32

31:                                               ; preds = %20, %17
  store i32 -9996, ptr %5, align 4
  br label %45

32:                                               ; preds = %20
  %33 = load ptr, ptr @hostApis_, align 8
  %34 = load i32, ptr %3, align 4
  %35 = sext i32 %34 to i64
  %36 = getelementptr inbounds ptr, ptr %33, i64 %35
  %37 = load ptr, ptr %36, align 8
  %38 = getelementptr inbounds nuw %struct.PaUtilHostApiRepresentation, ptr %37, i32 0, i32 0
  %39 = getelementptr inbounds nuw %struct.PaUtilPrivatePaFrontHostApiInfo, ptr %38, i32 0, i32 0
  %40 = load i64, ptr %39, align 8
  %41 = load i32, ptr %4, align 4
  %42 = sext i32 %41 to i64
  %43 = add i64 %40, %42
  %44 = trunc i64 %43 to i32
  store i32 %44, ptr %5, align 4
  br label %45

45:                                               ; preds = %32, %31
  br label %46

46:                                               ; preds = %45, %16
  br label %47

47:                                               ; preds = %46, %8
  %48 = load i32, ptr %5, align 4
  ret i32 %48
}