; Function Attrs: mustprogress nofree norecurse nosync nounwind willreturn memory(read, inaccessiblemem: none) uwtable
define i32 @Pa_HostApiDeviceIndexToDeviceIndex(i32 noundef %0, i32 noundef %1) local_unnamed_addr #9 {
  %3 = load i32, ptr @initializationCount_, align 4
  %.not = icmp eq i32 %3, 0
  br i1 %.not, label %20, label %4

4:                                                ; preds = %2
  %5 = icmp sgt i32 %0, -1
  %6 = load i32, ptr @hostApisCount_, align 4
  %.not10 = icmp slt i32 %0, %6
  %or.cond = select i1 %5, i1 %.not10, i1 false
  br i1 %or.cond, label %7, label %20

7:                                                ; preds = %4
  %8 = icmp slt i32 %1, 0
  br i1 %8, label %20, label %9

9:                                                ; preds = %7
  %10 = load ptr, ptr @hostApis_, align 8
  %11 = zext nneg i32 %0 to i64
  %12 = getelementptr inbounds ptr, ptr %10, i64 %11
  %13 = load ptr, ptr %12, align 8
  %14 = getelementptr inbounds i8, ptr %13, i64 24
  %15 = load i32, ptr %14, align 8
  %.not11 = icmp slt i32 %1, %15
  br i1 %.not11, label %16, label %20

16:                                               ; preds = %9
  %17 = load i64, ptr %13, align 8
  %18 = trunc i64 %17 to i32
  %19 = add i32 %1, %18
  br label %20

20:                                               ; preds = %7, %9, %4, %2, %16
  %.0 = phi i32 [ %19, %16 ], [ -10000, %2 ], [ -9978, %4 ], [ -9996, %9 ], [ -9996, %7 ]
  ret i32 %.0
}